target datalayout = "e-m:e-p270:32:32-p271:32:32-p272:64:64-i64:64-i128:128-f80:128-n8:16:32:64-S128"
target triple = "x86_64-pc-linux-gnu"

%"class.cv::RBaseStream" = type <{ ptr, i8, [7 x i8], ptr, ptr, ptr, ptr, i32, i32, i8, [7 x i8] }>

; Function Attrs: mustprogress uwtable
define hidden void @_ZN2cv11RBaseStream5closeEv(ptr noundef nonnull align 8 dereferenceable(57) %0) unnamed_addr #1 align 2 {
  %2 = alloca ptr, align 8
  store ptr %0, ptr %2, align 8, !tbaa !3
  %3 = load ptr, ptr %2, align 8
  %4 = getelementptr inbounds nuw %"class.cv::RBaseStream", ptr %3, i32 0, i32 6
  %5 = load ptr, ptr %4, align 8, !tbaa !23
  %6 = icmp ne ptr %5, null
  br i1 %6, label %7, label %12

7:                                                ; preds = %1
  %8 = getelementptr inbounds nuw %"class.cv::RBaseStream", ptr %3, i32 0, i32 6
  %9 = load ptr, ptr %8, align 8, !tbaa !23
  %10 = call i32 @fclose(ptr noundef %9)
  %11 = getelementptr inbounds nuw %"class.cv::RBaseStream", ptr %3, i32 0, i32 6
  store ptr null, ptr %11, align 8, !tbaa !23
  br label %12

12:                                               ; preds = %7, %1
  %13 = getelementptr inbounds nuw %"class.cv::RBaseStream", ptr %3, i32 0, i32 9
  store i8 0, ptr %13, align 8, !tbaa !8
  %14 = getelementptr inbounds nuw %"class.cv::RBaseStream", ptr %3, i32 0, i32 1
  %15 = load i8, ptr %14, align 8, !tbaa !16, !range !14, !noundef !15
  %16 = trunc i8 %15 to i1
  br i1 %16, label %21, label %17

17:                                               ; preds = %12
  %18 = getelementptr inbounds nuw %"class.cv::RBaseStream", ptr %3, i32 0, i32 5
  store ptr null, ptr %18, align 8, !tbaa !20
  %19 = getelementptr inbounds nuw %"class.cv::RBaseStream", ptr %3, i32 0, i32 4
  store ptr null, ptr %19, align 8, !tbaa !19
  %20 = getelementptr inbounds nuw %"class.cv::RBaseStream", ptr %3, i32 0, i32 3
  store ptr null, ptr %20, align 8, !tbaa !18
  br label %21

21:                                               ; preds = %17, %12
  ret void
}